target datalayout = "e-m:e-p270:32:32-p271:32:32-p272:64:64-i64:64-i128:128-f80:128-n8:16:32:64-S128"
target triple = "x86_64-pc-linux-gnu"

%struct.ThreadData = type { ptr, ptr, ptr, i32, i32, float }

; Function Attrs: alwaysinline nounwind willreturn memory(none) uwtable
define internal double @av_clipd_c(double noundef %0, double noundef %1, double noundef %2) #6 {
  %4 = alloca double, align 8
  %5 = alloca double, align 8
  %6 = alloca double, align 8
  store double %0, ptr %4, align 8, !tbaa !85
  store double %1, ptr %5, align 8, !tbaa !85
  store double %2, ptr %6, align 8, !tbaa !85
  %7 = load double, ptr %4, align 8, !tbaa !85
  %8 = load double, ptr %5, align 8, !tbaa !85
  %9 = fcmp nsz ogt double %7, %8
  br i1 %9, label %10, label %12

10:                                               ; preds = %3
  %11 = load double, ptr %4, align 8, !tbaa !85
  br label %14

12:                                               ; preds = %3
  %13 = load double, ptr %5, align 8, !tbaa !85
  br label %14

14:                                               ; preds = %12, %10
  %15 = phi nsz double [ %11, %10 ], [ %13, %12 ]
  %16 = load double, ptr %6, align 8, !tbaa !85
  %17 = fcmp nsz ogt double %15, %16
  br i1 %17, label %18, label %20

18:                                               ; preds = %14
  %19 = load double, ptr %6, align 8, !tbaa !85
  br label %30

20:                                               ; preds = %14
  %21 = load double, ptr %4, align 8, !tbaa !85
  %22 = load double, ptr %5, align 8, !tbaa !85
  %23 = fcmp nsz ogt double %21, %22
  br i1 %23, label %24, label %26

24:                                               ; preds = %20
  %25 = load double, ptr %4, align 8, !tbaa !85
  br label %28

26:                                               ; preds = %20
  %27 = load double, ptr %5, align 8, !tbaa !85
  br label %28

28:                                               ; preds = %26, %24
  %29 = phi nsz double [ %25, %24 ], [ %27, %26 ]
  br label %30

30:                                               ; preds = %28, %18
  %31 = phi nsz double [ %19, %18 ], [ %29, %28 ]
  ret double %31
}

; Function Attrs: nounwind uwtable
define internal i32 @filter_noinverse_dblp_clip(ptr noundef %0, ptr noundef %1, i32 noundef %2, i32 noundef %3) #2 {
  %5 = alloca ptr, align 8
  %6 = alloca ptr, align 8
  %7 = alloca i32, align 4
  %8 = alloca i32, align 4
  %9 = alloca ptr, align 8
  %10 = alloca ptr, align 8
  %11 = alloca ptr, align 8
  %12 = alloca ptr, align 8
  %13 = alloca i32, align 4
  %14 = alloca i32, align 4
  %15 = alloca double, align 8
  %16 = alloca double, align 8
  %17 = alloca i32, align 4
  %18 = alloca i32, align 4
  %19 = alloca i32, align 4
  %20 = alloca i32, align 4
  %21 = alloca ptr, align 8
  %22 = alloca ptr, align 8
  %23 = alloca ptr, align 8
  %24 = alloca i32, align 4
  %25 = alloca double, align 8
  store ptr %0, ptr %5, align 8, !tbaa !4
  store ptr %1, ptr %6, align 8, !tbaa !58
  store i32 %2, ptr %7, align 4, !tbaa !61
  store i32 %3, ptr %8, align 4, !tbaa !61
  call void @llvm.lifetime.start.p0(i64 8, ptr %9) #7
  %26 = load ptr, ptr %6, align 8, !tbaa !58
  store ptr %26, ptr %9, align 8, !tbaa !62
  call void @llvm.lifetime.start.p0(i64 8, ptr %10) #7
  %27 = load ptr, ptr %9, align 8, !tbaa !62
  %28 = getelementptr inbounds nuw %struct.ThreadData, ptr %27, i32 0, i32 0
  %29 = load ptr, ptr %28, align 8, !tbaa !47
  store ptr %29, ptr %10, align 8, !tbaa !64
  call void @llvm.lifetime.start.p0(i64 8, ptr %11) #7
  %30 = load ptr, ptr %9, align 8, !tbaa !62
  %31 = getelementptr inbounds nuw %struct.ThreadData, ptr %30, i32 0, i32 1
  %32 = load ptr, ptr %31, align 8, !tbaa !50
  store ptr %32, ptr %11, align 8, !tbaa !64
  call void @llvm.lifetime.start.p0(i64 8, ptr %12) #7
  %33 = load ptr, ptr %9, align 8, !tbaa !62
  %34 = getelementptr inbounds nuw %struct.ThreadData, ptr %33, i32 0, i32 2
  %35 = load ptr, ptr %34, align 8, !tbaa !49
  store ptr %35, ptr %12, align 8, !tbaa !64
  call void @llvm.lifetime.start.p0(i64 4, ptr %13) #7
  %36 = load ptr, ptr %9, align 8, !tbaa !62
  %37 = getelementptr inbounds nuw %struct.ThreadData, ptr %36, i32 0, i32 3
  %38 = load i32, ptr %37, align 8, !tbaa !51
  store i32 %38, ptr %13, align 4, !tbaa !61
  call void @llvm.lifetime.start.p0(i64 4, ptr %14) #7
  %39 = load ptr, ptr %9, align 8, !tbaa !62
  %40 = getelementptr inbounds nuw %struct.ThreadData, ptr %39, i32 0, i32 4
  %41 = load i32, ptr %40, align 4, !tbaa !53
  store i32 %41, ptr %14, align 4, !tbaa !61
  call void @llvm.lifetime.start.p0(i64 8, ptr %15) #7
  %42 = load ptr, ptr %9, align 8, !tbaa !62
  %43 = getelementptr inbounds nuw %struct.ThreadData, ptr %42, i32 0, i32 5
  %44 = load float, ptr %43, align 8, !tbaa !56
  %45 = fpext nsz float %44 to double
  store double %45, ptr %15, align 8, !tbaa !85
  call void @llvm.lifetime.start.p0(i64 8, ptr %16) #7
  %46 = load double, ptr %15, align 8, !tbaa !85
  %47 = fneg nsz double %46
  %48 = fadd nsz double %47, 1.000000e+00
  %49 = fdiv nsz double 1.000000e+00, %48
  store double %49, ptr %16, align 8, !tbaa !85
  call void @llvm.lifetime.start.p0(i64 4, ptr %17) #7
  %50 = load i32, ptr %14, align 4, !tbaa !61
  %51 = load i32, ptr %7, align 4, !tbaa !61
  %52 = mul nsw i32 %50, %51
  %53 = load i32, ptr %8, align 4, !tbaa !61
  %54 = sdiv i32 %52, %53
  store i32 %54, ptr %17, align 4, !tbaa !61
  call void @llvm.lifetime.start.p0(i64 4, ptr %18) #7
  %55 = load i32, ptr %14, align 4, !tbaa !61
  %56 = load i32, ptr %7, align 4, !tbaa !61
  %57 = add nsw i32 %56, 1
  %58 = mul nsw i32 %55, %57
  %59 = load i32, ptr %8, align 4, !tbaa !61
  %60 = sdiv i32 %58, %59
  store i32 %60, ptr %18, align 4, !tbaa !61
  call void @llvm.lifetime.start.p0(i64 4, ptr %19) #7
  %61 = load i32, ptr %17, align 4, !tbaa !61
  store i32 %61, ptr %19, align 4, !tbaa !61
  br label %62

62:                                               ; preds = %123, %4
  %63 = load i32, ptr %19, align 4, !tbaa !61
  %64 = load i32, ptr %18, align 4, !tbaa !61
  %65 = icmp slt i32 %63, %64
  br i1 %65, label %67, label %66

66:                                               ; preds = %62
  store i32 2, ptr %20, align 4
  call void @llvm.lifetime.end.p0(i64 4, ptr %19) #7
  br label %126

67:                                               ; preds = %62
  call void @llvm.lifetime.start.p0(i64 8, ptr %21) #7
  %68 = load ptr, ptr %12, align 8, !tbaa !64
  %69 = load i32, ptr %19, align 4, !tbaa !61
  %70 = sext i32 %69 to i64
  %71 = getelementptr inbounds ptr, ptr %68, i64 %70
  %72 = load ptr, ptr %71, align 8, !tbaa !58
  store ptr %72, ptr %21, align 8, !tbaa !87
  call void @llvm.lifetime.start.p0(i64 8, ptr %22) #7
  %73 = load ptr, ptr %10, align 8, !tbaa !64
  %74 = load i32, ptr %19, align 4, !tbaa !61
  %75 = sext i32 %74 to i64
  %76 = getelementptr inbounds ptr, ptr %73, i64 %75
  %77 = load ptr, ptr %76, align 8, !tbaa !58
  store ptr %77, ptr %22, align 8, !tbaa !87
  call void @llvm.lifetime.start.p0(i64 8, ptr %23) #7
  %78 = load ptr, ptr %11, align 8, !tbaa !64
  %79 = load i32, ptr %19, align 4, !tbaa !61
  %80 = sext i32 %79 to i64
  %81 = getelementptr inbounds ptr, ptr %78, i64 %80
  %82 = load ptr, ptr %81, align 8, !tbaa !58
  store ptr %82, ptr %23, align 8, !tbaa !87
  call void @llvm.lifetime.start.p0(i64 4, ptr %24) #7
  store i32 0, ptr %24, align 4, !tbaa !61
  br label %83

83:                                               ; preds = %119, %67
  %84 = load i32, ptr %24, align 4, !tbaa !61
  %85 = load i32, ptr %13, align 4, !tbaa !61
  %86 = icmp slt i32 %84, %85
  br i1 %86, label %88, label %87

87:                                               ; preds = %83
  store i32 5, ptr %20, align 4
  call void @llvm.lifetime.end.p0(i64 4, ptr %24) #7
  br label %122

88:                                               ; preds = %83
  call void @llvm.lifetime.start.p0(i64 8, ptr %25) #7
  %89 = load ptr, ptr %21, align 8, !tbaa !87
  %90 = load i32, ptr %24, align 4, !tbaa !61
  %91 = sext i32 %90 to i64
  %92 = getelementptr inbounds double, ptr %89, i64 %91
  %93 = load double, ptr %92, align 8, !tbaa !85
  store double %93, ptr %25, align 8, !tbaa !85
  %94 = load double, ptr %25, align 8, !tbaa !85
  %95 = load double, ptr %25, align 8, !tbaa !85
  %96 = load ptr, ptr %23, align 8, !tbaa !87
  %97 = getelementptr inbounds double, ptr %96, i64 0
  %98 = load double, ptr %97, align 8, !tbaa !85
  %99 = fsub nsz double %95, %98
  %100 = load double, ptr %15, align 8, !tbaa !85
  %101 = call nsz double @llvm.fmuladd.f64(double %99, double %100, double %94)
  %102 = load ptr, ptr %22, align 8, !tbaa !87
  %103 = load i32, ptr %24, align 4, !tbaa !61
  %104 = sext i32 %103 to i64
  %105 = getelementptr inbounds double, ptr %102, i64 %104
  store double %101, ptr %105, align 8, !tbaa !85
  %106 = load double, ptr %25, align 8, !tbaa !85
  %107 = load ptr, ptr %23, align 8, !tbaa !87
  %108 = getelementptr inbounds double, ptr %107, i64 0
  store double %106, ptr %108, align 8, !tbaa !85
  %109 = load ptr, ptr %22, align 8, !tbaa !87
  %110 = load i32, ptr %24, align 4, !tbaa !61
  %111 = sext i32 %110 to i64
  %112 = getelementptr inbounds double, ptr %109, i64 %111
  %113 = load double, ptr %112, align 8, !tbaa !85
  %114 = call nsz double @av_clipd_c(double noundef %113, double noundef -1.000000e+00, double noundef 1.000000e+00) #9
  %115 = load ptr, ptr %22, align 8, !tbaa !87
  %116 = load i32, ptr %24, align 4, !tbaa !61
  %117 = sext i32 %116 to i64
  %118 = getelementptr inbounds double, ptr %115, i64 %117
  store double %114, ptr %118, align 8, !tbaa !85
  call void @llvm.lifetime.end.p0(i64 8, ptr %25) #7
  br label %119

119:                                              ; preds = %88
  %120 = load i32, ptr %24, align 4, !tbaa !61
  %121 = add nsw i32 %120, 1
  store i32 %121, ptr %24, align 4, !tbaa !61
  br label %83, !llvm.loop !102

122:                                              ; preds = %87
  call void @llvm.lifetime.end.p0(i64 8, ptr %23) #7
  call void @llvm.lifetime.end.p0(i64 8, ptr %22) #7
  call void @llvm.lifetime.end.p0(i64 8, ptr %21) #7
  br label %123

123:                                              ; preds = %122
  %124 = load i32, ptr %19, align 4, !tbaa !61
  %125 = add nsw i32 %124, 1
  store i32 %125, ptr %19, align 4, !tbaa !61
  br label %62, !llvm.loop !103

126:                                              ; preds = %66
  store i32 1, ptr %20, align 4
  call void @llvm.lifetime.end.p0(i64 4, ptr %18) #7
  call void @llvm.lifetime.end.p0(i64 4, ptr %17) #7
  call void @llvm.lifetime.end.p0(i64 8, ptr %16) #7
  call void @llvm.lifetime.end.p0(i64 8, ptr %15) #7
  call void @llvm.lifetime.end.p0(i64 4, ptr %14) #7
  call void @llvm.lifetime.end.p0(i64 4, ptr %13) #7
  call void @llvm.lifetime.end.p0(i64 8, ptr %12) #7
  call void @llvm.lifetime.end.p0(i64 8, ptr %11) #7
  call void @llvm.lifetime.end.p0(i64 8, ptr %10) #7
  call void @llvm.lifetime.end.p0(i64 8, ptr %9) #7
  ret i32 0
}